target datalayout = "e-m:e-p270:32:32-p271:32:32-p272:64:64-i64:64-i128:128-f80:128-n8:16:32:64-S128"
target triple = "x86_64-pc-linux-gnu"

%struct.FunctionCallInfoBaseData = type { ptr, ptr, ptr, i32, i8, i16, [0 x %struct.NullableDatum] }
%struct.NullableDatum = type { i64, i8 }
%struct.BrinOpcInfo = type { i16, i8, ptr, [0 x ptr] }

; Function Attrs: inlinehint nounwind uwtable
define internal i64 @PointerGetDatum(ptr noundef %0) #2 {
  %2 = alloca ptr, align 8
  store ptr %0, ptr %2, align 8
  %3 = load ptr, ptr %2, align 8
  %4 = ptrtoint ptr %3 to i64
  ret i64 %4
}

; Function Attrs: inlinehint nounwind uwtable
define internal i32 @DatumGetObjectId(i64 noundef %0) #2 {
  %2 = alloca i64, align 8
  store i64 %0, ptr %2, align 8
  %3 = load i64, ptr %2, align 8
  %4 = trunc i64 %3 to i32
  ret i32 %4
}

; Function Attrs: nounwind uwtable
define dso_local i64 @brin_inclusion_opcinfo(ptr noundef %0) #0 {
  %2 = alloca ptr, align 8
  %3 = alloca i32, align 4
  %4 = alloca ptr, align 8
  %5 = alloca ptr, align 8
  store ptr %0, ptr %2, align 8
  call void @llvm.lifetime.start.p0(i64 4, ptr %3) #5
  %6 = load ptr, ptr %2, align 8
  %7 = getelementptr inbounds nuw %struct.FunctionCallInfoBaseData, ptr %6, i32 0, i32 6
  %8 = getelementptr inbounds [0 x %struct.NullableDatum], ptr %7, i64 0, i64 0
  %9 = getelementptr inbounds nuw %struct.NullableDatum, ptr %8, i32 0, i32 0
  %10 = load i64, ptr %9, align 8
  %11 = call i32 @DatumGetObjectId(i64 noundef %10)
  store i32 %11, ptr %3, align 4
  call void @llvm.lifetime.start.p0(i64 8, ptr %4) #5
  call void @llvm.lifetime.start.p0(i64 8, ptr %5) #5
  %12 = call ptr @lookup_type_cache(i32 noundef 16, i32 noundef 0)
  store ptr %12, ptr %5, align 8
  %13 = call ptr @palloc0(i64 noundef 1680)
  store ptr %13, ptr %4, align 8
  %14 = load ptr, ptr %4, align 8
  %15 = getelementptr inbounds nuw %struct.BrinOpcInfo, ptr %14, i32 0, i32 0
  store i16 3, ptr %15, align 8
  %16 = load ptr, ptr %4, align 8
  %17 = getelementptr inbounds nuw %struct.BrinOpcInfo, ptr %16, i32 0, i32 1
  store i8 1, ptr %17, align 2
  %18 = load ptr, ptr %4, align 8
  %19 = getelementptr inbounds nuw i8, ptr %18, i64 40
  %20 = ptrtoint ptr %19 to i64
  %21 = add i64 %20, 7
  %22 = and i64 %21, -8
  %23 = inttoptr i64 %22 to ptr
  %24 = load ptr, ptr %4, align 8
  %25 = getelementptr inbounds nuw %struct.BrinOpcInfo, ptr %24, i32 0, i32 2
  store ptr %23, ptr %25, align 8
  %26 = load i32, ptr %3, align 4
  %27 = call ptr @lookup_type_cache(i32 noundef %26, i32 noundef 0)
  %28 = load ptr, ptr %4, align 8
  %29 = getelementptr inbounds nuw %struct.BrinOpcInfo, ptr %28, i32 0, i32 3
  %30 = getelementptr inbounds [0 x ptr], ptr %29, i64 0, i64 0
  store ptr %27, ptr %30, align 8
  %31 = load ptr, ptr %5, align 8
  %32 = load ptr, ptr %4, align 8
  %33 = getelementptr inbounds nuw %struct.BrinOpcInfo, ptr %32, i32 0, i32 3
  %34 = getelementptr inbounds [0 x ptr], ptr %33, i64 0, i64 1
  store ptr %31, ptr %34, align 8
  %35 = load ptr, ptr %5, align 8
  %36 = load ptr, ptr %4, align 8
  %37 = getelementptr inbounds nuw %struct.BrinOpcInfo, ptr %36, i32 0, i32 3
  %38 = getelementptr inbounds [0 x ptr], ptr %37, i64 0, i64 2
  store ptr %35, ptr %38, align 8
  %39 = load ptr, ptr %4, align 8
  %40 = call i64 @PointerGetDatum(ptr noundef %39)
  call void @llvm.lifetime.end.p0(i64 8, ptr %5) #5
  call void @llvm.lifetime.end.p0(i64 8, ptr %4) #5
  call void @llvm.lifetime.end.p0(i64 4, ptr %3) #5
  ret i64 %40
}